; Function Attrs: null_pointer_is_valid sspstrong uwtable
define internal noundef zeroext i1 @update_generic_one_identifier_16bit(ptr noundef readonly captures(none) %0, ptr noundef writeonly captures(none) %1) #0 {
  %3 = load i32, ptr %0, align 8
  %4 = icmp ugt i32 %3, 65535
  %5 = getelementptr inbounds nuw i8, ptr %0, i64 8
  %6 = load ptr, ptr %5, align 8
  br i1 %4, label %7, label %9

7:                                                ; preds = %2
  %8 = tail call noalias ptr (ptr, ptr, ...) @wmem_strdup_printf(ptr noundef null, ptr noundef nonnull @.str.601, i32 noundef %3, ptr noundef %6)
  br label %.sink.split

9:                                                ; preds = %2
  %10 = icmp eq ptr %6, null
  br i1 %10, label %14, label %11

11:                                               ; preds = %9
  %12 = load i8, ptr %6, align 1
  %13 = icmp eq i8 %12, 0
  br i1 %13, label %14, label %16

14:                                               ; preds = %11, %9
  %15 = tail call noalias ptr @g_strdup(ptr noundef nonnull @.str.602)
  br label %.sink.split

.sink.split:                                      ; preds = %7, %14
  %.sink = phi ptr [ %15, %14 ], [ %8, %7 ]
  store ptr %.sink, ptr %1, align 8
  br label %16

16:                                               ; preds = %.sink.split, %11
  %.0 = phi i1 [ true, %11 ], [ false, %.sink.split ]
  ret i1 %.0
}